(dp0
S'anubha'
p1
(dp2
S'tiles'
p3
(lp4
(I4691
I15715
tp5
a(I4691
I16227
tp6
a(I4691
I16739
tp7
a(I5203
I15715
tp8
a(I5203
I16227
tp9
a(I5203
I16739
tp10
a(I5715
I15715
tp11
a(I5715
I16227
tp12
a(I5715
I16739
tp13
asS'tilename'
p14
I51
sS'brain_no'
p15
I1969
sS'sectionid'
p16
I875016
ssS'hari'
p17
(dp18
g3
g4
sg14
I52
sg15
I1969
sg16
I875017
ssS'jkrishnavs'
p19
(dp20
g3
g4
sg14
I46
sg15
I1969
sg16
I875011
ssS'abinmathew2'
p21
(dp22
g3
g4
sg14
I54
sg15
I1969
sg16
I875019
ssS'Balamurali'
p23
(dp24
g3
g4
sg14
I56
sg15
I1969
sg16
I875021
ssS'Sapta'
p25
(dp26
g3
g4
sg14
I47
sg15
I1969
sg16
I875012
ssS'AvishekBh'
p27
(dp28
g3
g4
sg14
I48
sg15
I1969
sg16
I875013
ssS'cs14d008'
p29
(dp30
g3
g4
sg14
I49
sg15
I1969
sg16
I875014
ssS'muhammadarsath'
p31
(dp32
g3
g4
sg14
I55
sg15
I1969
sg16
I875020
ssS'nikitam'
p33
(dp34
g3
g4
sg14
I53
sg15
I1969
sg16
I875018
ssS'ukd'
p35
(dp36
g3
g4
sg14
I50
sg15
I1969
sg16
I875015
ssS'giri'
p37
(dp38
g3
g4
sg14
I57
sg15
I1969
sg16
I875022
ss.